target datalayout = "e-m:e-p270:32:32-p271:32:32-p272:64:64-i64:64-i128:128-f80:128-n8:16:32:64-S128"
target triple = "x86_64-pc-linux-gnu"

%struct._zend_phar_globals = type { %struct._zend_array, %struct._zend_array, ptr, %struct._zend_array, i32, i32, ptr, i32, i32, i32, i32, i8, i8, i8, i32, i32, i32, i32, ptr, ptr, ptr, ptr, ptr, ptr, ptr, ptr, ptr, ptr, ptr, ptr, ptr, ptr, ptr, ptr, ptr, ptr, ptr, ptr, ptr, ptr, ptr, i32, i32, ptr, i32, ptr, i32, ptr, i32, ptr, %struct._zend_array }
%struct._zend_array = type { %struct._zend_refcounted_h, %union.anon.4, i32, %union.anon.6, i32, i32, i32, i32, i64, ptr }
%struct._zend_refcounted_h = type { i32, %union.anon.3 }
%union.anon.3 = type { i32 }
%union.anon.4 = type { i32 }
%union.anon.6 = type { ptr }
%struct._zval_struct = type { %union._zend_value, %union.anon, %union.anon.2 }
%union._zend_value = type { i64 }
%union.anon = type { i32 }
%union.anon.2 = type { i32 }
%struct._phar_entry_info = type { i32, i32, i32, i32, i32, i32, %struct._phar_metadata_tracker, i32, ptr, i32, i64, i64, i64, ptr, ptr, i32, ptr, ptr, ptr, i8, i32, i16, i16 }
%struct._phar_metadata_tracker = type { %struct._zval_struct, ptr }
%struct._phar_archive_data = type { ptr, i32, ptr, i32, ptr, i32, [12 x i8], i64, i64, %struct._zend_array, %struct._zend_array, %struct._zend_array, i32, i32, i32, ptr, ptr, i32, i32, i32, ptr, %struct._phar_metadata_tracker, i32, i16 }
%struct._phar_entry_fp = type { ptr, ptr, ptr }
%struct._phar_entry_fp_info = type { i32, i64 }

@phar_globals = external global %struct._zend_phar_globals, align 8

; Function Attrs: nounwind uwtable
define internal i64 @phar_get_fp_offset(ptr noundef %0) #0 {
  %2 = alloca i64, align 8
  %3 = alloca ptr, align 8
  store ptr %0, ptr %3, align 8
  %4 = load ptr, ptr %3, align 8
  %5 = getelementptr inbounds %struct._phar_entry_info, ptr %4, i32 0, i32 22
  %6 = load i16, ptr %5, align 2
  %7 = lshr i16 %6, 8
  %8 = and i16 %7, 1
  %9 = zext i16 %8 to i32
  %10 = icmp ne i32 %9, 0
  br i1 %10, label %15, label %11

11:                                               ; preds = %1
  %12 = load ptr, ptr %3, align 8
  %13 = getelementptr inbounds %struct._phar_entry_info, ptr %12, i32 0, i32 11
  %14 = load i64, ptr %13, align 8
  store i64 %14, ptr %2, align 8
  br label %92

15:                                               ; preds = %1
  %16 = load ptr, ptr getelementptr inbounds (%struct._zend_phar_globals, ptr @phar_globals, i32 0, i32 2), align 8
  %17 = load ptr, ptr %3, align 8
  %18 = getelementptr inbounds %struct._phar_entry_info, ptr %17, i32 0, i32 17
  %19 = load ptr, ptr %18, align 8
  %20 = getelementptr inbounds %struct._phar_archive_data, ptr %19, i32 0, i32 22
  %21 = load i32, ptr %20, align 8
  %22 = zext i32 %21 to i64
  %23 = getelementptr inbounds %struct._phar_entry_fp, ptr %16, i64 %22
  %24 = getelementptr inbounds %struct._phar_entry_fp, ptr %23, i32 0, i32 2
  %25 = load ptr, ptr %24, align 8
  %26 = load ptr, ptr %3, align 8
  %27 = getelementptr inbounds %struct._phar_entry_info, ptr %26, i32 0, i32 20
  %28 = load i32, ptr %27, align 4
  %29 = zext i32 %28 to i64
  %30 = getelementptr inbounds %struct._phar_entry_fp_info, ptr %25, i64 %29
  %31 = getelementptr inbounds %struct._phar_entry_fp_info, ptr %30, i32 0, i32 0
  %32 = load i32, ptr %31, align 8
  %33 = icmp eq i32 %32, 0
  br i1 %33, label %34, label %74

34:                                               ; preds = %15
  %35 = load ptr, ptr getelementptr inbounds (%struct._zend_phar_globals, ptr @phar_globals, i32 0, i32 2), align 8
  %36 = load ptr, ptr %3, align 8
  %37 = getelementptr inbounds %struct._phar_entry_info, ptr %36, i32 0, i32 17
  %38 = load ptr, ptr %37, align 8
  %39 = getelementptr inbounds %struct._phar_archive_data, ptr %38, i32 0, i32 22
  %40 = load i32, ptr %39, align 8
  %41 = zext i32 %40 to i64
  %42 = getelementptr inbounds %struct._phar_entry_fp, ptr %35, i64 %41
  %43 = getelementptr inbounds %struct._phar_entry_fp, ptr %42, i32 0, i32 2
  %44 = load ptr, ptr %43, align 8
  %45 = load ptr, ptr %3, align 8
  %46 = getelementptr inbounds %struct._phar_entry_info, ptr %45, i32 0, i32 20
  %47 = load i32, ptr %46, align 4
  %48 = zext i32 %47 to i64
  %49 = getelementptr inbounds %struct._phar_entry_fp_info, ptr %44, i64 %48
  %50 = getelementptr inbounds %struct._phar_entry_fp_info, ptr %49, i32 0, i32 1
  %51 = load i64, ptr %50, align 8
  %52 = icmp ne i64 %51, 0
  br i1 %52, label %73, label %53

53:                                               ; preds = %34
  %54 = load ptr, ptr %3, align 8
  %55 = getelementptr inbounds %struct._phar_entry_info, ptr %54, i32 0, i32 11
  %56 = load i64, ptr %55, align 8
  %57 = load ptr, ptr getelementptr inbounds (%struct._zend_phar_globals, ptr @phar_globals, i32 0, i32 2), align 8
  %58 = load ptr, ptr %3, align 8
  %59 = getelementptr inbounds %struct._phar_entry_info, ptr %58, i32 0, i32 17
  %60 = load ptr, ptr %59, align 8
  %61 = getelementptr inbounds %struct._phar_archive_data, ptr %60, i32 0, i32 22
  %62 = load i32, ptr %61, align 8
  %63 = zext i32 %62 to i64
  %64 = getelementptr inbounds %struct._phar_entry_fp, ptr %57, i64 %63
  %65 = getelementptr inbounds %struct._phar_entry_fp, ptr %64, i32 0, i32 2
  %66 = load ptr, ptr %65, align 8
  %67 = load ptr, ptr %3, align 8
  %68 = getelementptr inbounds %struct._phar_entry_info, ptr %67, i32 0, i32 20
  %69 = load i32, ptr %68, align 4
  %70 = zext i32 %69 to i64
  %71 = getelementptr inbounds %struct._phar_entry_fp_info, ptr %66, i64 %70
  %72 = getelementptr inbounds %struct._phar_entry_fp_info, ptr %71, i32 0, i32 1
  store i64 %56, ptr %72, align 8
  br label %73

73:                                               ; preds = %53, %34
  br label %74

74:                                               ; preds = %73, %15
  %75 = load ptr, ptr getelementptr inbounds (%struct._zend_phar_globals, ptr @phar_globals, i32 0, i32 2), align 8
  %76 = load ptr, ptr %3, align 8
  %77 = getelementptr inbounds %struct._phar_entry_info, ptr %76, i32 0, i32 17
  %78 = load ptr, ptr %77, align 8
  %79 = getelementptr inbounds %struct._phar_archive_data, ptr %78, i32 0, i32 22
  %80 = load i32, ptr %79, align 8
  %81 = zext i32 %80 to i64
  %82 = getelementptr inbounds %struct._phar_entry_fp, ptr %75, i64 %81
  %83 = getelementptr inbounds %struct._phar_entry_fp, ptr %82, i32 0, i32 2
  %84 = load ptr, ptr %83, align 8
  %85 = load ptr, ptr %3, align 8
  %86 = getelementptr inbounds %struct._phar_entry_info, ptr %85, i32 0, i32 20
  %87 = load i32, ptr %86, align 4
  %88 = zext i32 %87 to i64
  %89 = getelementptr inbounds %struct._phar_entry_fp_info, ptr %84, i64 %88
  %90 = getelementptr inbounds %struct._phar_entry_fp_info, ptr %89, i32 0, i32 1
  %91 = load i64, ptr %90, align 8
  store i64 %91, ptr %2, align 8
  br label %92

92:                                               ; preds = %74, %11
  %93 = load i64, ptr %2, align 8
  ret i64 %93
}

; Function Attrs: nounwind uwtable
define hidden i32 @phar_seek_efp(ptr noundef %0, i64 noundef %1, i32 noundef %2, i64 noundef %3, i32 noundef %4) #0 {
  %6 = alloca i32, align 4
  %7 = alloca ptr, align 8
  %8 = alloca i64, align 8
  %9 = alloca i32, align 4
  %10 = alloca i64, align 8
  %11 = alloca i32, align 4
  %12 = alloca ptr, align 8
  %13 = alloca i64, align 8
  %14 = alloca i64, align 8
  %15 = alloca ptr, align 8
  store ptr %0, ptr %7, align 8
  store i64 %1, ptr %8, align 8
  store i32 %2, ptr %9, align 4
  store i64 %3, ptr %10, align 8
  store i32 %4, ptr %11, align 4
  %16 = load ptr, ptr %7, align 8
  %17 = load i32, ptr %11, align 4
  %18 = call ptr @phar_get_efp(ptr noundef %16, i32 noundef %17)
  store ptr %18, ptr %12, align 8
  %19 = load ptr, ptr %12, align 8
  %20 = icmp ne ptr %19, null
  br i1 %20, label %22, label %21

21:                                               ; preds = %5
  store i32 -1, ptr %6, align 4
  br label %85

22:                                               ; preds = %5
  %23 = load i32, ptr %11, align 4
  %24 = icmp ne i32 %23, 0
  br i1 %24, label %25, label %33

25:                                               ; preds = %22
  %26 = load ptr, ptr %7, align 8
  %27 = call ptr @phar_get_link_source(ptr noundef %26)
  store ptr %27, ptr %15, align 8
  %28 = load ptr, ptr %15, align 8
  %29 = icmp ne ptr %28, null
  br i1 %29, label %30, label %32

30:                                               ; preds = %25
  %31 = load ptr, ptr %15, align 8
  store ptr %31, ptr %7, align 8
  br label %32

32:                                               ; preds = %30, %25
  br label %33

33:                                               ; preds = %32, %22
  %34 = load ptr, ptr %7, align 8
  %35 = getelementptr inbounds %struct._phar_entry_info, ptr %34, i32 0, i32 22
  %36 = load i16, ptr %35, align 2
  %37 = lshr i16 %36, 3
  %38 = and i16 %37, 1
  %39 = zext i16 %38 to i32
  %40 = icmp ne i32 %39, 0
  br i1 %40, label %41, label %42

41:                                               ; preds = %33
  store i32 0, ptr %6, align 4
  br label %85

42:                                               ; preds = %33
  %43 = load ptr, ptr %7, align 8
  %44 = call i64 @phar_get_fp_offset(ptr noundef %43)
  store i64 %44, ptr %14, align 8
  %45 = load i32, ptr %9, align 4
  switch i32 %45, label %65 [
    i32 2, label %46
    i32 1, label %55
    i32 0, label %61
  ]

46:                                               ; preds = %42
  %47 = load i64, ptr %14, align 8
  %48 = load ptr, ptr %7, align 8
  %49 = getelementptr inbounds %struct._phar_entry_info, ptr %48, i32 0, i32 0
  %50 = load i32, ptr %49, align 8
  %51 = zext i32 %50 to i64
  %52 = add nsw i64 %47, %51
  %53 = load i64, ptr %8, align 8
  %54 = add nsw i64 %52, %53
  store i64 %54, ptr %13, align 8
  br label %66

55:                                               ; preds = %42
  %56 = load i64, ptr %14, align 8
  %57 = load i64, ptr %10, align 8
  %58 = add nsw i64 %56, %57
  %59 = load i64, ptr %8, align 8
  %60 = add nsw i64 %58, %59
  store i64 %60, ptr %13, align 8
  br label %66

61:                                               ; preds = %42
  %62 = load i64, ptr %14, align 8
  %63 = load i64, ptr %8, align 8
  %64 = add nsw i64 %62, %63
  store i64 %64, ptr %13, align 8
  br label %66

65:                                               ; preds = %42
  store i64 0, ptr %13, align 8
  br label %66

66:                                               ; preds = %65, %61, %55, %46
  %67 = load i64, ptr %13, align 8
  %68 = load i64, ptr %14, align 8
  %69 = load ptr, ptr %7, align 8
  %70 = getelementptr inbounds %struct._phar_entry_info, ptr %69, i32 0, i32 0
  %71 = load i32, ptr %70, align 8
  %72 = zext i32 %71 to i64
  %73 = add nsw i64 %68, %72
  %74 = icmp sgt i64 %67, %73
  br i1 %74, label %75, label %76

75:                                               ; preds = %66
  store i32 -1, ptr %6, align 4
  br label %85

76:                                               ; preds = %66
  %77 = load i64, ptr %13, align 8
  %78 = load i64, ptr %14, align 8
  %79 = icmp slt i64 %77, %78
  br i1 %79, label %80, label %81

80:                                               ; preds = %76
  store i32 -1, ptr %6, align 4
  br label %85

81:                                               ; preds = %76
  %82 = load ptr, ptr %12, align 8
  %83 = load i64, ptr %13, align 8
  %84 = call i32 @_php_stream_seek(ptr noundef %82, i64 noundef %83, i32 noundef 0)
  store i32 %84, ptr %6, align 4
  br label %85

85:                                               ; preds = %81, %80, %75, %41, %21
  %86 = load i32, ptr %6, align 4
  ret i32 %86
}