; Function Attrs: nounwind uwtable
define hidden i32 @phar_seek_efp(ptr noundef %0, i64 noundef %1, i32 noundef %2, i64 noundef %3, i32 noundef %4) local_unnamed_addr #0 {
  %6 = tail call ptr @phar_get_efp(ptr noundef %0, i32 noundef %4)
  %.not = icmp eq ptr %6, null
  br i1 %.not, label %60, label %7

7:                                                ; preds = %5
  %.not29 = icmp eq i32 %4, 0
  br i1 %.not29, label %10, label %8

8:                                                ; preds = %7
  %9 = tail call ptr @phar_get_link_source(ptr noundef %0)
  %.not30 = icmp eq ptr %9, null
  %spec.select = select i1 %.not30, ptr %0, ptr %9
  br label %10

10:                                               ; preds = %8, %7
  %.025 = phi ptr [ %0, %7 ], [ %spec.select, %8 ]
  %11 = getelementptr inbounds i8, ptr %.025, i64 154
  %12 = load i16, ptr %11, align 2
  %13 = and i16 %12, 8
  %.not31 = icmp eq i16 %13, 0
  br i1 %.not31, label %14, label %60

14:                                               ; preds = %10
  %15 = and i16 %12, 256
  %.not.i = icmp eq i16 %15, 0
  br i1 %.not.i, label %16, label %18

16:                                               ; preds = %14
  %17 = getelementptr inbounds i8, ptr %.025, i64 80
  br label %phar_get_fp_offset.exit

18:                                               ; preds = %14
  %19 = load ptr, ptr getelementptr inbounds (%struct._zend_phar_globals, ptr @phar_globals, i64 0, i32 2), align 8
  %20 = getelementptr inbounds i8, ptr %.025, i64 128
  %21 = load ptr, ptr %20, align 8
  %22 = getelementptr inbounds i8, ptr %21, i64 320
  %23 = load i32, ptr %22, align 8
  %24 = zext i32 %23 to i64
  %25 = getelementptr inbounds %struct._phar_entry_fp, ptr %19, i64 %24, i32 2
  %26 = load ptr, ptr %25, align 8
  %27 = getelementptr inbounds i8, ptr %.025, i64 148
  %28 = load i32, ptr %27, align 4
  %29 = zext i32 %28 to i64
  %30 = getelementptr inbounds %struct._phar_entry_fp_info, ptr %26, i64 %29
  %31 = load i32, ptr %30, align 8
  %32 = icmp eq i32 %31, 0
  br i1 %32, label %33, label %39

33:                                               ; preds = %18
  %34 = getelementptr inbounds i8, ptr %30, i64 8
  %35 = load i64, ptr %34, align 8
  %.not11.i = icmp eq i64 %35, 0
  br i1 %.not11.i, label %36, label %39

36:                                               ; preds = %33
  %37 = getelementptr inbounds i8, ptr %.025, i64 80
  %38 = load i64, ptr %37, align 8
  store i64 %38, ptr %34, align 8
  %.pre.i = load ptr, ptr getelementptr inbounds (%struct._zend_phar_globals, ptr @phar_globals, i64 0, i32 2), align 8
  %.pre12.i = load ptr, ptr %20, align 8
  %.phi.trans.insert.i = getelementptr inbounds i8, ptr %.pre12.i, i64 320
  %.pre13.i = load i32, ptr %.phi.trans.insert.i, align 8
  %.phi.trans.insert14.i = zext i32 %.pre13.i to i64
  %.phi.trans.insert15.i = getelementptr inbounds %struct._phar_entry_fp, ptr %.pre.i, i64 %.phi.trans.insert14.i, i32 2
  %.pre16.i = load ptr, ptr %.phi.trans.insert15.i, align 8
  %.pre17.i = load i32, ptr %27, align 4
  %.pre18.i = zext i32 %.pre17.i to i64
  br label %39

39:                                               ; preds = %36, %33, %18
  %.pre-phi19.i = phi i64 [ %29, %33 ], [ %.pre18.i, %36 ], [ %29, %18 ]
  %40 = phi ptr [ %26, %33 ], [ %.pre16.i, %36 ], [ %26, %18 ]
  %41 = getelementptr inbounds %struct._phar_entry_fp_info, ptr %40, i64 %.pre-phi19.i, i32 1
  br label %phar_get_fp_offset.exit

phar_get_fp_offset.exit:                          ; preds = %16, %39
  %.0.in.i = phi ptr [ %41, %39 ], [ %17, %16 ]
  %.0.i = load i64, ptr %.0.in.i, align 8
  switch i32 %2, label %52 [
    i32 2, label %42
    i32 1, label %47
    i32 0, label %50
  ]

42:                                               ; preds = %phar_get_fp_offset.exit
  %43 = load i32, ptr %.025, align 8
  %44 = zext i32 %43 to i64
  %45 = add i64 %.0.i, %1
  %46 = add i64 %45, %44
  br label %52

47:                                               ; preds = %phar_get_fp_offset.exit
  %48 = add i64 %3, %1
  %49 = add i64 %48, %.0.i
  br label %52

50:                                               ; preds = %phar_get_fp_offset.exit
  %51 = add nsw i64 %.0.i, %1
  br label %52

52:                                               ; preds = %phar_get_fp_offset.exit, %50, %47, %42
  %.026 = phi i64 [ %51, %50 ], [ %49, %47 ], [ %46, %42 ], [ 0, %phar_get_fp_offset.exit ]
  %53 = load i32, ptr %.025, align 8
  %54 = zext i32 %53 to i64
  %55 = add nsw i64 %.0.i, %54
  %56 = icmp sgt i64 %.026, %55
  %57 = icmp slt i64 %.026, %.0.i
  %or.cond = or i1 %57, %56
  br i1 %or.cond, label %60, label %58

58:                                               ; preds = %52
  %59 = tail call i32 @_php_stream_seek(ptr noundef nonnull %6, i64 noundef %.026, i32 noundef 0) #15
  br label %60

60:                                               ; preds = %52, %10, %5, %58
  %.0 = phi i32 [ %59, %58 ], [ -1, %5 ], [ 0, %10 ], [ -1, %52 ]
  ret i32 %.0
}